; Function Attrs: mustprogress nounwind uwtable
define internal fastcc noundef ptr @_ZL23getRuntimeLoopRemainderRKN4llvm10DataLayoutERNS_13IRBuilderBaseEPNS_5ValueES6_j(ptr noundef nonnull align 8 dereferenceable(128) %0, ptr noundef %1, ptr noundef %2, i32 noundef %3) unnamed_addr #0 {
  %5 = alloca %"class.llvm::Twine", align 8
  %6 = alloca %"class.llvm::Twine", align 8
  %7 = alloca %"class.llvm::Twine", align 8
  %8 = tail call range(i32 1, 33) i32 @llvm.ctpop.i32(i32 %3)
  %or.cond = icmp eq i32 %8, 1
  br i1 %or.cond, label %9, label %_ZN4llvm13isPowerOf2_32Ej.exit.thread

9:                                                ; preds = %4
  %10 = add i32 %3, -1
  %11 = zext i32 %10 to i64
  %12 = getelementptr inbounds nuw i8, ptr %6, i64 32
  store i16 257, ptr %12, align 8
  %13 = call noundef ptr @_ZN4llvm13IRBuilderBase9CreateAndEPNS_5ValueEmRKNS_5TwineE(ptr noundef nonnull align 8 dereferenceable(128) %0, ptr noundef %1, i64 noundef %11, ptr noundef nonnull align 8 dereferenceable(34) %6)
  br label %37

_ZN4llvm13isPowerOf2_32Ej.exit.thread:            ; preds = %4
  %14 = getelementptr inbounds nuw i8, ptr %7, i64 32
  store i16 257, ptr %14, align 8
  call void @llvm.lifetime.start.p0(i64 40, ptr nonnull %5)
  %15 = getelementptr inbounds nuw i8, ptr %0, i64 80
  %16 = load ptr, ptr %15, align 8
  %17 = load ptr, ptr %16, align 8
  %18 = getelementptr inbounds i8, ptr %17, i64 16
  %19 = load ptr, ptr %18, align 8
  %20 = tail call noundef ptr %19(ptr noundef nonnull align 8 dereferenceable(8) %16, i32 noundef 22, ptr noundef %1, ptr noundef %2) #12
  %.not.i = icmp eq ptr %20, null
  br i1 %.not.i, label %21, label %_ZN4llvm13IRBuilderBase10CreateURemEPNS_5ValueES2_RKNS_5TwineE.exit

21:                                               ; preds = %_ZN4llvm13isPowerOf2_32Ej.exit.thread
  %22 = getelementptr inbounds nuw i8, ptr %5, i64 32
  store i16 257, ptr %22, align 8
  %23 = call noundef ptr @_ZN4llvm14BinaryOperator6CreateENS_11Instruction9BinaryOpsEPNS_5ValueES4_RKNS_5TwineENS_14InsertPositionE(i32 noundef 22, ptr noundef %1, ptr noundef %2, ptr noundef nonnull align 8 dereferenceable(34) %5, ptr null, i64 0) #12
  %24 = getelementptr inbounds nuw i8, ptr %0, i64 88
  %25 = load ptr, ptr %24, align 8
  %26 = getelementptr inbounds nuw i8, ptr %0, i64 56
  %.sroa.0.0.copyload.i.i = load ptr, ptr %26, align 8
  %.sroa.2.0..sroa_idx.i.i = getelementptr inbounds i8, ptr %0, i64 64
  %.sroa.2.0.copyload.i.i = load i64, ptr %.sroa.2.0..sroa_idx.i.i, align 8
  %27 = load ptr, ptr %25, align 8
  %28 = getelementptr inbounds i8, ptr %27, i64 16
  %29 = load ptr, ptr %28, align 8
  call void %29(ptr noundef nonnull align 8 dereferenceable(8) %25, ptr noundef %23, ptr noundef nonnull align 8 dereferenceable(34) %7, ptr %.sroa.0.0.copyload.i.i, i64 %.sroa.2.0.copyload.i.i) #12
  %30 = load ptr, ptr %0, align 8
  %31 = call noundef i64 @_ZNK4llvm15SmallVectorBaseIjE4sizeEv(ptr noundef nonnull align 8 dereferenceable(16) %0) #12
  %32 = getelementptr inbounds %"struct.std::pair", ptr %30, i64 %31
  %.not10.i.i.i = icmp eq i64 %31, 0
  br i1 %.not10.i.i.i, label %_ZN4llvm13IRBuilderBase10CreateURemEPNS_5ValueES2_RKNS_5TwineE.exit, label %.lr.ph.i.i.i

.lr.ph.i.i.i:                                     ; preds = %21, %.lr.ph.i.i.i
  %.011.i.i.i = phi ptr [ %36, %.lr.ph.i.i.i ], [ %30, %21 ]
  %33 = load i32, ptr %.011.i.i.i, align 8
  %34 = getelementptr inbounds nuw i8, ptr %.011.i.i.i, i64 8
  %35 = load ptr, ptr %34, align 8
  call void @_ZN4llvm11Instruction11setMetadataEjPNS_6MDNodeE(ptr noundef nonnull align 8 dereferenceable(72) %23, i32 noundef %33, ptr noundef %35) #12
  %36 = getelementptr inbounds i8, ptr %.011.i.i.i, i64 16
  %.not.i.i.i = icmp eq ptr %36, %32
  br i1 %.not.i.i.i, label %_ZN4llvm13IRBuilderBase10CreateURemEPNS_5ValueES2_RKNS_5TwineE.exit, label %.lr.ph.i.i.i

_ZN4llvm13IRBuilderBase10CreateURemEPNS_5ValueES2_RKNS_5TwineE.exit: ; preds = %.lr.ph.i.i.i, %_ZN4llvm13isPowerOf2_32Ej.exit.thread, %21
  %.0.i = phi ptr [ %20, %_ZN4llvm13isPowerOf2_32Ej.exit.thread ], [ %23, %21 ], [ %23, %.lr.ph.i.i.i ]
  call void @llvm.lifetime.end.p0(i64 40, ptr nonnull %5)
  br label %37

37:                                               ; preds = %_ZN4llvm13IRBuilderBase10CreateURemEPNS_5ValueES2_RKNS_5TwineE.exit, %9
  %.0 = phi ptr [ %13, %9 ], [ %.0.i, %_ZN4llvm13IRBuilderBase10CreateURemEPNS_5ValueES2_RKNS_5TwineE.exit ]
  ret ptr %.0
}